target datalayout = "e-m:e-p270:32:32-p271:32:32-p272:64:64-i64:64-i128:128-f80:128-n8:16:32:64-S128"
target triple = "x86_64-pc-linux-gnu"

%struct.asn1_string_st = type { i32, i32, ptr, i64 }

; Function Attrs: nounwind uwtable
define i32 @ASN1_BIT_STRING_check(ptr noundef %0, ptr noundef %1, i32 noundef %2) #0 {
  %4 = alloca i32, align 4
  %5 = alloca ptr, align 8
  %6 = alloca ptr, align 8
  %7 = alloca i32, align 4
  %8 = alloca i32, align 4
  %9 = alloca i32, align 4
  %10 = alloca i32, align 4
  %11 = alloca i8, align 1
  store ptr %0, ptr %5, align 8, !tbaa !3
  store ptr %1, ptr %6, align 8, !tbaa !8
  store i32 %2, ptr %7, align 4, !tbaa !10
  call void @llvm.lifetime.start.p0(i64 4, ptr %8) #5
  call void @llvm.lifetime.start.p0(i64 4, ptr %9) #5
  %12 = load ptr, ptr %5, align 8, !tbaa !3
  %13 = icmp ne ptr %12, null
  br i1 %13, label %14, label %19

14:                                               ; preds = %3
  %15 = load ptr, ptr %5, align 8, !tbaa !3
  %16 = getelementptr inbounds nuw %struct.asn1_string_st, ptr %15, i32 0, i32 2
  %17 = load ptr, ptr %16, align 8, !tbaa !18
  %18 = icmp ne ptr %17, null
  br i1 %18, label %20, label %19

19:                                               ; preds = %14, %3
  store i32 1, ptr %4, align 4
  store i32 1, ptr %10, align 4
  br label %66

20:                                               ; preds = %14
  store i32 1, ptr %9, align 4, !tbaa !10
  store i32 0, ptr %8, align 4, !tbaa !10
  br label %21

21:                                               ; preds = %61, %20
  %22 = load i32, ptr %8, align 4, !tbaa !10
  %23 = load ptr, ptr %5, align 8, !tbaa !3
  %24 = getelementptr inbounds nuw %struct.asn1_string_st, ptr %23, i32 0, i32 0
  %25 = load i32, ptr %24, align 8, !tbaa !14
  %26 = icmp slt i32 %22, %25
  br i1 %26, label %27, label %30

27:                                               ; preds = %21
  %28 = load i32, ptr %9, align 4, !tbaa !10
  %29 = icmp ne i32 %28, 0
  br label %30

30:                                               ; preds = %27, %21
  %31 = phi i1 [ false, %21 ], [ %29, %27 ]
  br i1 %31, label %32, label %64

32:                                               ; preds = %30
  call void @llvm.lifetime.start.p0(i64 1, ptr %11) #5
  %33 = load i32, ptr %8, align 4, !tbaa !10
  %34 = load i32, ptr %7, align 4, !tbaa !10
  %35 = icmp slt i32 %33, %34
  br i1 %35, label %36, label %44

36:                                               ; preds = %32
  %37 = load ptr, ptr %6, align 8, !tbaa !8
  %38 = load i32, ptr %8, align 4, !tbaa !10
  %39 = sext i32 %38 to i64
  %40 = getelementptr inbounds i8, ptr %37, i64 %39
  %41 = load i8, ptr %40, align 1, !tbaa !19
  %42 = zext i8 %41 to i32
  %43 = xor i32 %42, -1
  br label %45

44:                                               ; preds = %32
  br label %45

45:                                               ; preds = %44, %36
  %46 = phi i32 [ %43, %36 ], [ 255, %44 ]
  %47 = trunc i32 %46 to i8
  store i8 %47, ptr %11, align 1, !tbaa !19
  %48 = load ptr, ptr %5, align 8, !tbaa !3
  %49 = getelementptr inbounds nuw %struct.asn1_string_st, ptr %48, i32 0, i32 2
  %50 = load ptr, ptr %49, align 8, !tbaa !18
  %51 = load i32, ptr %8, align 4, !tbaa !10
  %52 = sext i32 %51 to i64
  %53 = getelementptr inbounds i8, ptr %50, i64 %52
  %54 = load i8, ptr %53, align 1, !tbaa !19
  %55 = zext i8 %54 to i32
  %56 = load i8, ptr %11, align 1, !tbaa !19
  %57 = zext i8 %56 to i32
  %58 = and i32 %55, %57
  %59 = icmp eq i32 %58, 0
  %60 = zext i1 %59 to i32
  store i32 %60, ptr %9, align 4, !tbaa !10
  call void @llvm.lifetime.end.p0(i64 1, ptr %11) #5
  br label %61

61:                                               ; preds = %45
  %62 = load i32, ptr %8, align 4, !tbaa !10
  %63 = add nsw i32 %62, 1
  store i32 %63, ptr %8, align 4, !tbaa !10
  br label %21, !llvm.loop !27

64:                                               ; preds = %30
  %65 = load i32, ptr %9, align 4, !tbaa !10
  store i32 %65, ptr %4, align 4
  store i32 1, ptr %10, align 4
  br label %66

66:                                               ; preds = %64, %19
  call void @llvm.lifetime.end.p0(i64 4, ptr %9) #5
  call void @llvm.lifetime.end.p0(i64 4, ptr %8) #5
  %67 = load i32, ptr %4, align 4
  ret i32 %67
}